target datalayout = "e-m:e-p270:32:32-p271:32:32-p272:64:64-i64:64-i128:128-f80:128-n8:16:32:64-S128"
target triple = "x86_64-pc-linux-gnu"

; Function Attrs: nounwind uwtable
define dso_local i64 @compute_user_block_size(i64 noundef %0) #0 {
  %2 = alloca i64, align 8
  %3 = alloca i64, align 8
  %4 = alloca i64, align 8
  %5 = alloca i32, align 4
  store i64 %0, ptr %3, align 8, !tbaa !17
  call void @llvm.lifetime.start.p0(i64 8, ptr %4) #6
  store i64 512, ptr %4, align 8, !tbaa !17
  %6 = load i64, ptr %3, align 8, !tbaa !17
  %7 = icmp eq i64 0, %6
  br i1 %7, label %8, label %9

8:                                                ; preds = %1
  store i64 0, ptr %2, align 8
  store i32 1, ptr %5, align 4
  br label %19

9:                                                ; preds = %1
  br label %10

10:                                               ; preds = %14, %9
  %11 = load i64, ptr %4, align 8, !tbaa !17
  %12 = load i64, ptr %3, align 8, !tbaa !17
  %13 = icmp ult i64 %11, %12
  br i1 %13, label %14, label %17

14:                                               ; preds = %10
  %15 = load i64, ptr %4, align 8, !tbaa !17
  %16 = mul i64 %15, 2
  store i64 %16, ptr %4, align 8, !tbaa !17
  br label %10, !llvm.loop !22

17:                                               ; preds = %10
  %18 = load i64, ptr %4, align 8, !tbaa !17
  store i64 %18, ptr %2, align 8
  store i32 1, ptr %5, align 4
  br label %19

19:                                               ; preds = %17, %8
  call void @llvm.lifetime.end.p0(i64 8, ptr %4) #6
  %20 = load i64, ptr %2, align 8
  ret i64 %20
}

; Function Attrs: nounwind uwtable
define dso_local i32 @write_pad(i32 noundef %0, i64 noundef %1, ptr noundef %2) #0 {
  %4 = alloca i32, align 4
  %5 = alloca i32, align 4
  %6 = alloca i64, align 8
  %7 = alloca ptr, align 8
  %8 = alloca i32, align 4
  %9 = alloca [1 x i8], align 1
  %10 = alloca i64, align 8
  %11 = alloca i32, align 4
  store i32 %0, ptr %5, align 4, !tbaa !4
  store i64 %1, ptr %6, align 8, !tbaa !17
  store ptr %2, ptr %7, align 8, !tbaa !24
  call void @llvm.lifetime.start.p0(i64 4, ptr %8) #6
  call void @llvm.lifetime.start.p0(i64 1, ptr %9) #6
  call void @llvm.lifetime.start.p0(i64 8, ptr %10) #6
  %12 = load ptr, ptr %7, align 8, !tbaa !24
  %13 = icmp eq ptr %12, null
  br i1 %13, label %14, label %15

14:                                               ; preds = %3
  store i32 -1, ptr %4, align 4
  store i32 1, ptr %11, align 4
  br label %45

15:                                               ; preds = %3
  %16 = getelementptr inbounds [1 x i8], ptr %9, i64 0, i64 0
  store i8 0, ptr %16, align 1, !tbaa !26
  %17 = load i32, ptr %5, align 4, !tbaa !4
  %18 = load i64, ptr %6, align 8, !tbaa !17
  %19 = call i64 @lseek64(i32 noundef %17, i64 noundef %18, i32 noundef 0) #6
  %20 = load i64, ptr %6, align 8, !tbaa !17
  %21 = call i64 @compute_user_block_size(i64 noundef %20) #8
  store i64 %21, ptr %10, align 8, !tbaa !17
  %22 = load i64, ptr %6, align 8, !tbaa !17
  %23 = load i64, ptr %10, align 8, !tbaa !17
  %24 = sub i64 %23, %22
  store i64 %24, ptr %10, align 8, !tbaa !17
  store i32 0, ptr %8, align 4, !tbaa !4
  br label %25

25:                                               ; preds = %37, %15
  %26 = load i32, ptr %8, align 4, !tbaa !4
  %27 = zext i32 %26 to i64
  %28 = load i64, ptr %10, align 8, !tbaa !17
  %29 = icmp ult i64 %27, %28
  br i1 %29, label %30, label %40

30:                                               ; preds = %25
  %31 = load i32, ptr %5, align 4, !tbaa !4
  %32 = getelementptr inbounds [1 x i8], ptr %9, i64 0, i64 0
  %33 = call i64 @write(i32 noundef %31, ptr noundef %32, i64 noundef 1)
  %34 = icmp slt i64 %33, 0
  br i1 %34, label %35, label %36

35:                                               ; preds = %30
  store i32 -1, ptr %4, align 4
  store i32 1, ptr %11, align 4
  br label %45

36:                                               ; preds = %30
  br label %37

37:                                               ; preds = %36
  %38 = load i32, ptr %8, align 4, !tbaa !4
  %39 = add i32 %38, 1
  store i32 %39, ptr %8, align 4, !tbaa !4
  br label %25, !llvm.loop !27

40:                                               ; preds = %25
  %41 = load i64, ptr %6, align 8, !tbaa !17
  %42 = load i64, ptr %10, align 8, !tbaa !17
  %43 = add i64 %41, %42
  %44 = load ptr, ptr %7, align 8, !tbaa !24
  store i64 %43, ptr %44, align 8, !tbaa !17
  store i32 0, ptr %4, align 4
  store i32 1, ptr %11, align 4
  br label %45

45:                                               ; preds = %40, %35, %14
  call void @llvm.lifetime.end.p0(i64 8, ptr %10) #6
  call void @llvm.lifetime.end.p0(i64 1, ptr %9) #6
  call void @llvm.lifetime.end.p0(i64 4, ptr %8) #6
  %46 = load i32, ptr %4, align 4
  ret i32 %46
}