; Function Attrs: nounwind uwtable
define dso_local range(i32 -1, 1) i32 @write_pad(i32 noundef %0, i64 noundef %1, ptr noundef writeonly captures(address_is_null) %2) local_unnamed_addr #0 {
  %4 = alloca [1 x i8], align 1
  call void @llvm.lifetime.start.p0(i64 1, ptr nonnull %4) #15
  %5 = icmp eq ptr %2, null
  br i1 %5, label %.loopexit, label %6

6:                                                ; preds = %3
  store i8 0, ptr %4, align 1, !tbaa !21
  %7 = tail call i64 @lseek64(i32 noundef %0, i64 noundef %1, i32 noundef 0) #15
  %8 = icmp eq i64 %1, 0
  br i1 %8, label %compute_user_block_size.exit, label %.preheader.i

.preheader.i:                                     ; preds = %6, %.preheader.i
  %.0.i = phi i64 [ %10, %.preheader.i ], [ 512, %6 ]
  %9 = icmp ult i64 %.0.i, %1
  %10 = shl i64 %.0.i, 1
  br i1 %9, label %.preheader.i, label %compute_user_block_size.exit, !llvm.loop !18

compute_user_block_size.exit:                     ; preds = %.preheader.i, %6
  %.06.i = phi i64 [ 0, %6 ], [ %.0.i, %.preheader.i ]
  %11 = sub i64 %.06.i, %1
  %.not = icmp eq i64 %.06.i, %1
  br i1 %.not, label %._crit_edge, label %.lr.ph

12:                                               ; preds = %.lr.ph
  %13 = add i32 %.015, 1
  %14 = zext i32 %13 to i64
  %15 = icmp ugt i64 %11, %14
  br i1 %15, label %.lr.ph, label %._crit_edge, !llvm.loop !22

.lr.ph:                                           ; preds = %compute_user_block_size.exit, %12
  %.015 = phi i32 [ %13, %12 ], [ 0, %compute_user_block_size.exit ]
  %16 = call i64 @write(i32 noundef %0, ptr noundef nonnull %4, i64 noundef 1) #15
  %17 = icmp slt i64 %16, 0
  br i1 %17, label %.loopexit, label %12

._crit_edge:                                      ; preds = %12, %compute_user_block_size.exit
  store i64 %.06.i, ptr %2, align 8, !tbaa !19
  br label %.loopexit

.loopexit:                                        ; preds = %.lr.ph, %3, %._crit_edge
  %.013 = phi i32 [ 0, %._crit_edge ], [ -1, %3 ], [ -1, %.lr.ph ]
  call void @llvm.lifetime.end.p0(i64 1, ptr nonnull %4) #15
  ret i32 %.013
}